EXPORTS
    _ZN10testesutil11deveSerNuloEPv @1
    _ZN10testesutil12deveSerFalsoEb @2
    _ZN10testesutil14deveSerNaoNuloEPv @3
    _ZN10testesutil14deveSerVerdadeEb @4
    _ZN10testesutil14devemSerIguaisENSt7__cxx1112basic_stringIcSt11char_traitsIcESaIcEEES5_ @5
    _ZN10testesutil14devemSerIguaisEPiS0_i @6
    _ZN10testesutil14devemSerIguaisEPvS0_ @7
    _ZN10testesutil14devemSerIguaisESt6vectorIiSaIiEES2_ @8
    _ZN10testesutil14devemSerIguaisEdd @9
    _ZN10testesutil14devemSerIguaisEff @10
    _ZN10testesutil14devemSerIguaisEii @11
    _ZN10testesutil18devemSerDiferentesENSt7__cxx1112basic_stringIcSt11char_traitsIcESaIcEEES5_ @12
    _ZN10testesutil18devemSerDiferentesEPiS0_i @13
    _ZN10testesutil18devemSerDiferentesEPvS0_ @14
    _ZN10testesutil18devemSerDiferentesESt6vectorIiSaIiEES2_ @15
    _ZN10testesutil18devemSerDiferentesEdd @16
    _ZN10testesutil18devemSerDiferentesEff @17
    _ZN10testesutil18devemSerDiferentesEii @18
    _ZN11teste_errorC1ENSt7__cxx1112basic_stringIcSt11char_traitsIcESaIcEEE @19
    _ZN11teste_errorC2ENSt7__cxx1112basic_stringIcSt11char_traitsIcESaIcEEE @20
    _ZN6Testes3addENSt7__cxx1112basic_stringIcSt11char_traitsIcESaIcEEESt8functionIFvvEE @21
    _ZN6Testes7executaEv @22
    _ZN6TestesC1ENSt7__cxx1112basic_stringIcSt11char_traitsIcESaIcEEE @23
    _ZN6TestesC2ENSt7__cxx1112basic_stringIcSt11char_traitsIcESaIcEEE @24
    _ZN7numutil13sorteiaNumeroEv @25
    _ZN7strutil10startsWithENSt7__cxx1112basic_stringIcSt11char_traitsIcESaIcEEES5_ @26
    _ZN7strutil7toLowerENSt7__cxx1112basic_stringIcSt11char_traitsIcESaIcEEE @27
    _ZN8readutil10readDoubleENSt7__cxx1112basic_stringIcSt11char_traitsIcESaIcEEES5_ @28
    _ZN8readutil7readIntENSt7__cxx1112basic_stringIcSt11char_traitsIcESaIcEEES5_ @29
    _ZN8readutil8readLineENSt7__cxx1112basic_stringIcSt11char_traitsIcESaIcEEE @30
    _ZN8vectutil16verificaSeIguaisESt6vectorIiSaIiEES2_ @31
    _ZN8vectutil5exibeENSt7__cxx1112basic_stringIcSt11char_traitsIcESaIcEEESt6vectorIiSaIiEE @32
    _ZN8vectutil6indiceESt6vectorIiSaIiEEi @33
    _ZN9arrayutil10copiaVetorEPii @34
    _ZN9arrayutil13selectionSortEPii @35
    _ZN9arrayutil20inversoSelectionSortEPii @36
    _ZN9arrayutil22verificaSeArraysIguaisEPiS0_i @37
    _ZTI11teste_error @38 DATA
    _ZTV11teste_error @39 DATA
